; ModuleID = '12/911.c'
source_filename = "12/911.c"
target datalayout = "e-m:e-p270:32:32-p271:32:32-p272:64:64-i64:64-f80:128-n8:16:32:64-S128"
target triple = "x86_64-pc-linux-gnu"

@.str = private unnamed_addr constant [3 x i8] c"%d\00", align 1
@.str.1 = private unnamed_addr constant [4 x i8] c"%d\0A\00", align 1

; Function Attrs: noinline nounwind uwtable
define dso_local i32 @main(i32 %0, i8** %1) #0 {
  %3 = alloca i32, align 4
  %4 = alloca i32, align 4
  %5 = alloca i8**, align 8
  %6 = alloca [1000 x i32], align 16
  %7 = alloca i32, align 4
  %8 = alloca [15 x i32], align 16
  %9 = alloca i32, align 4
  %10 = alloca i32, align 4
  %11 = alloca i32, align 4
  %12 = alloca i32, align 4
  %13 = alloca i32, align 4
  store i32 0, i32* %3, align 4
  store i32 %0, i32* %4, align 4
  store i8** %1, i8*** %5, align 8
  store i32 0, i32* %13, align 4
  %14 = getelementptr inbounds [1000 x i32], [1000 x i32]* %6, i64 0, i64 0
  %15 = bitcast i32* %14 to i8*
  call void @llvm.memset.p0i8.i64(i8* align 16 %15, i8 0, i64 4000, i1 false)
  %16 = getelementptr inbounds [15 x i32], [15 x i32]* %8, i64 0, i64 0
  %17 = bitcast i32* %16 to i8*
  call void @llvm.memset.p0i8.i64(i8* align 16 %17, i8 0, i64 60, i1 false)
  br label %18

18:                                               ; preds = %2, %75
  store i32 0, i32* %10, align 4
  br label %19

19:                                               ; preds = %35, %18
  %20 = call i32 (i8*, ...) @__isoc99_scanf(i8* getelementptr inbounds ([3 x i8], [3 x i8]* @.str, i64 0, i64 0), i32* %9)
  %21 = load i32, i32* %9, align 4
  %22 = icmp eq i32 %21, 0
  br i1 %22, label %23, label %24

23:                                               ; preds = %19
  br label %36

24:                                               ; preds = %19
  %25 = load i32, i32* %9, align 4
  %26 = icmp eq i32 %25, -1
  br i1 %26, label %27, label %28

27:                                               ; preds = %24
  br label %36

28:                                               ; preds = %24
  %29 = load i32, i32* %9, align 4
  %30 = load i32, i32* %10, align 4
  %31 = sext i32 %30 to i64
  %32 = getelementptr inbounds [15 x i32], [15 x i32]* %8, i64 0, i64 %31
  store i32 %29, i32* %32, align 4
  %33 = load i32, i32* %10, align 4
  %34 = add nsw i32 %33, 1
  store i32 %34, i32* %10, align 4
  br label %35

35:                                               ; preds = %28
  br i1 true, label %19, label %36

36:                                               ; preds = %35, %27, %23
  %37 = load i32, i32* %9, align 4
  %38 = icmp eq i32 %37, -1
  br i1 %38, label %39, label %40

39:                                               ; preds = %36
  br label %78

40:                                               ; preds = %36
  store i32 0, i32* %11, align 4
  br label %41

41:                                               ; preds = %72, %40
  %42 = load i32, i32* %11, align 4
  %43 = load i32, i32* %10, align 4
  %44 = icmp slt i32 %42, %43
  br i1 %44, label %45, label %75

45:                                               ; preds = %41
  store i32 0, i32* %12, align 4
  br label %46

46:                                               ; preds = %68, %45
  %47 = load i32, i32* %12, align 4
  %48 = load i32, i32* %10, align 4
  %49 = icmp slt i32 %47, %48
  br i1 %49, label %50, label %71

50:                                               ; preds = %46
  %51 = load i32, i32* %11, align 4
  %52 = sext i32 %51 to i64
  %53 = getelementptr inbounds [15 x i32], [15 x i32]* %8, i64 0, i64 %52
  %54 = load i32, i32* %53, align 4
  %55 = mul nsw i32 %54, 2
  %56 = load i32, i32* %12, align 4
  %57 = sext i32 %56 to i64
  %58 = getelementptr inbounds [15 x i32], [15 x i32]* %8, i64 0, i64 %57
  %59 = load i32, i32* %58, align 4
  %60 = icmp eq i32 %55, %59
  br i1 %60, label %61, label %67

61:                                               ; preds = %50
  %62 = load i32, i32* %13, align 4
  %63 = sext i32 %62 to i64
  %64 = getelementptr inbounds [1000 x i32], [1000 x i32]* %6, i64 0, i64 %63
  %65 = load i32, i32* %64, align 4
  %66 = add nsw i32 %65, 1
  store i32 %66, i32* %64, align 4
  br label %67

67:                                               ; preds = %61, %50
  br label %68

68:                                               ; preds = %67
  %69 = load i32, i32* %12, align 4
  %70 = add nsw i32 %69, 1
  store i32 %70, i32* %12, align 4
  br label %46

71:                                               ; preds = %46
  br label %72

72:                                               ; preds = %71
  %73 = load i32, i32* %11, align 4
  %74 = add nsw i32 %73, 1
  store i32 %74, i32* %11, align 4
  br label %41

75:                                               ; preds = %41
  %76 = load i32, i32* %13, align 4
  %77 = add nsw i32 %76, 1
  store i32 %77, i32* %13, align 4
  br label %18

78:                                               ; preds = %39
  store i32 0, i32* %11, align 4
  br label %79

79:                                               ; preds = %89, %78
  %80 = load i32, i32* %11, align 4
  %81 = load i32, i32* %13, align 4
  %82 = icmp slt i32 %80, %81
  br i1 %82, label %83, label %92

83:                                               ; preds = %79
  %84 = load i32, i32* %11, align 4
  %85 = sext i32 %84 to i64
  %86 = getelementptr inbounds [1000 x i32], [1000 x i32]* %6, i64 0, i64 %85
  %87 = load i32, i32* %86, align 4
  %88 = call i32 (i8*, ...) @printf(i8* getelementptr inbounds ([4 x i8], [4 x i8]* @.str.1, i64 0, i64 0), i32 %87)
  br label %89

89:                                               ; preds = %83
  %90 = load i32, i32* %11, align 4
  %91 = add nsw i32 %90, 1
  store i32 %91, i32* %11, align 4
  br label %79

92:                                               ; preds = %79
  ret i32 0
}

; Function Attrs: argmemonly nounwind willreturn
declare void @llvm.memset.p0i8.i64(i8* nocapture writeonly, i8, i64, i1 immarg) #1

declare dso_local i32 @__isoc99_scanf(i8*, ...) #2

declare dso_local i32 @printf(i8*, ...) #2


!llvm.module.flags = !{!0}
!llvm.ident = !{!1}

!0 = !{i32 1, !"wchar_size", i32 4}
!1 = !{!"clang version 10.0.0-4ubuntu1 "}
